target datalayout = "e-m:e-p270:32:32-p271:32:32-p272:64:64-i64:64-i128:128-f80:128-n8:16:32:64-S128"
target triple = "x86_64-pc-linux-gnu"

%class.Sample_TileMesh = type <{ %class.Sample, i8, i8, [2 x i8], float, ptr, ptr, ptr, ptr, ptr, ptr, %struct.rcConfig, i32, i32, i32, float, i32, [3 x float], [3 x float], float, float, i32, [4 x i8] }>
%class.Sample = type { ptr, ptr, ptr, ptr, ptr, i8, float, float, float, float, float, float, float, float, float, float, float, float, float, i32, i8, i8, i8, ptr, [9 x ptr], ptr, %class.SampleDebugDraw }
%class.SampleDebugDraw = type { %class.DebugDrawGL }
%class.DebugDrawGL = type { %struct.duDebugDraw }
%struct.duDebugDraw = type { ptr }
%struct.rcConfig = type { i32, i32, i32, i32, float, float, [3 x float], [3 x float], float, i32, i32, i32, i32, float, i32, i32, i32, float, float }
%class.InputGeom = type { ptr, ptr, [3 x float], [3 x float], %struct.BuildSettings, i8, [1536 x float], [256 x float], [256 x i8], [256 x i8], [256 x i16], [256 x i32], i32, [256 x %struct.ConvexVolume], i32 }
%struct.BuildSettings = type { float, float, float, float, float, float, float, float, float, float, float, float, float, i32, [3 x float], [3 x float], float }
%struct.ConvexVolume = type { [36 x float], float, float, i32, i32 }

@.str = private unnamed_addr constant [25 x i8] c"Keep Itermediate Results\00", align 1
@.str.1 = private unnamed_addr constant [16 x i8] c"Build All Tiles\00", align 1
@.str.2 = private unnamed_addr constant [7 x i8] c"Tiling\00", align 1
@.str.3 = private unnamed_addr constant [9 x i8] c"TileSize\00", align 1
@.str.4 = private unnamed_addr constant [15 x i8] c"Tiles  %d x %d\00", align 1
@.str.5 = private unnamed_addr constant [14 x i8] c"Max Tiles  %d\00", align 1
@.str.6 = private unnamed_addr constant [14 x i8] c"Max Polys  %d\00", align 1
@.str.7 = private unnamed_addr constant [5 x i8] c"Save\00", align 1
@.str.8 = private unnamed_addr constant [22 x i8] c"all_tiles_navmesh.bin\00", align 1
@.str.9 = private unnamed_addr constant [5 x i8] c"Load\00", align 1
@.str.10 = private unnamed_addr constant [19 x i8] c"Build Time: %.1fms\00", align 1

; Function Attrs: mustprogress nounwind uwtable
define linkonce_odr dso_local noundef i32 @_Z5rcMinIiET_S0_S0_(i32 noundef %0, i32 noundef %1) #0 comdat {
  %3 = alloca i32, align 4
  %4 = alloca i32, align 4
  store i32 %0, ptr %3, align 4
  store i32 %1, ptr %4, align 4
  %5 = load i32, ptr %3, align 4
  %6 = load i32, ptr %4, align 4
  %7 = icmp slt i32 %5, %6
  br i1 %7, label %8, label %10

8:                                                ; preds = %2
  %9 = load i32, ptr %3, align 4
  br label %12

10:                                               ; preds = %2
  %11 = load i32, ptr %4, align 4
  br label %12

12:                                               ; preds = %10, %8
  %13 = phi i32 [ %9, %8 ], [ %11, %10 ]
  ret i32 %13
}

; Function Attrs: mustprogress nounwind uwtable
define linkonce_odr dso_local noundef i32 @_Z5ilog2j(i32 noundef %0) #0 comdat {
  %2 = alloca i32, align 4
  %3 = alloca i32, align 4
  %4 = alloca i32, align 4
  store i32 %0, ptr %2, align 4
  %5 = load i32, ptr %2, align 4
  %6 = icmp ugt i32 %5, 65535
  %7 = zext i1 %6 to i32
  %8 = shl i32 %7, 4
  store i32 %8, ptr %3, align 4
  %9 = load i32, ptr %3, align 4
  %10 = load i32, ptr %2, align 4
  %11 = lshr i32 %10, %9
  store i32 %11, ptr %2, align 4
  %12 = load i32, ptr %2, align 4
  %13 = icmp ugt i32 %12, 255
  %14 = zext i1 %13 to i32
  %15 = shl i32 %14, 3
  store i32 %15, ptr %4, align 4
  %16 = load i32, ptr %4, align 4
  %17 = load i32, ptr %2, align 4
  %18 = lshr i32 %17, %16
  store i32 %18, ptr %2, align 4
  %19 = load i32, ptr %4, align 4
  %20 = load i32, ptr %3, align 4
  %21 = or i32 %20, %19
  store i32 %21, ptr %3, align 4
  %22 = load i32, ptr %2, align 4
  %23 = icmp ugt i32 %22, 15
  %24 = zext i1 %23 to i32
  %25 = shl i32 %24, 2
  store i32 %25, ptr %4, align 4
  %26 = load i32, ptr %4, align 4
  %27 = load i32, ptr %2, align 4
  %28 = lshr i32 %27, %26
  store i32 %28, ptr %2, align 4
  %29 = load i32, ptr %4, align 4
  %30 = load i32, ptr %3, align 4
  %31 = or i32 %30, %29
  store i32 %31, ptr %3, align 4
  %32 = load i32, ptr %2, align 4
  %33 = icmp ugt i32 %32, 3
  %34 = zext i1 %33 to i32
  %35 = shl i32 %34, 1
  store i32 %35, ptr %4, align 4
  %36 = load i32, ptr %4, align 4
  %37 = load i32, ptr %2, align 4
  %38 = lshr i32 %37, %36
  store i32 %38, ptr %2, align 4
  %39 = load i32, ptr %4, align 4
  %40 = load i32, ptr %3, align 4
  %41 = or i32 %40, %39
  store i32 %41, ptr %3, align 4
  %42 = load i32, ptr %2, align 4
  %43 = lshr i32 %42, 1
  %44 = load i32, ptr %3, align 4
  %45 = or i32 %44, %43
  store i32 %45, ptr %3, align 4
  %46 = load i32, ptr %3, align 4
  ret i32 %46
}

; Function Attrs: mustprogress nounwind uwtable
define linkonce_odr dso_local noundef i32 @_Z8nextPow2j(i32 noundef %0) #0 comdat {
  %2 = alloca i32, align 4
  store i32 %0, ptr %2, align 4
  %3 = load i32, ptr %2, align 4
  %4 = add i32 %3, -1
  store i32 %4, ptr %2, align 4
  %5 = load i32, ptr %2, align 4
  %6 = lshr i32 %5, 1
  %7 = load i32, ptr %2, align 4
  %8 = or i32 %7, %6
  store i32 %8, ptr %2, align 4
  %9 = load i32, ptr %2, align 4
  %10 = lshr i32 %9, 2
  %11 = load i32, ptr %2, align 4
  %12 = or i32 %11, %10
  store i32 %12, ptr %2, align 4
  %13 = load i32, ptr %2, align 4
  %14 = lshr i32 %13, 4
  %15 = load i32, ptr %2, align 4
  %16 = or i32 %15, %14
  store i32 %16, ptr %2, align 4
  %17 = load i32, ptr %2, align 4
  %18 = lshr i32 %17, 8
  %19 = load i32, ptr %2, align 4
  %20 = or i32 %19, %18
  store i32 %20, ptr %2, align 4
  %21 = load i32, ptr %2, align 4
  %22 = lshr i32 %21, 16
  %23 = load i32, ptr %2, align 4
  %24 = or i32 %23, %22
  store i32 %24, ptr %2, align 4
  %25 = load i32, ptr %2, align 4
  %26 = add i32 %25, 1
  store i32 %26, ptr %2, align 4
  %27 = load i32, ptr %2, align 4
  ret i32 %27
}

; Function Attrs: mustprogress nounwind uwtable
define linkonce_odr dso_local noundef ptr @_ZNK9InputGeom19getNavMeshBoundsMaxEv(ptr noundef nonnull align 8 dereferenceable(50312) %0) #0 comdat align 2 {
  %2 = alloca ptr, align 8
  store ptr %0, ptr %2, align 8
  %3 = load ptr, ptr %2, align 8
  %4 = getelementptr inbounds %class.InputGeom, ptr %3, i32 0, i32 5
  %5 = load i8, ptr %4, align 4
  %6 = trunc i8 %5 to i1
  br i1 %6, label %7, label %10

7:                                                ; preds = %1
  %8 = getelementptr inbounds %class.InputGeom, ptr %3, i32 0, i32 4
  %9 = getelementptr inbounds %struct.BuildSettings, ptr %8, i32 0, i32 15
  br label %12

10:                                               ; preds = %1
  %11 = getelementptr inbounds %class.InputGeom, ptr %3, i32 0, i32 3
  br label %12

12:                                               ; preds = %10, %7
  %13 = phi ptr [ %9, %7 ], [ %11, %10 ]
  %14 = getelementptr inbounds [3 x float], ptr %13, i64 0, i64 0
  ret ptr %14
}

; Function Attrs: mustprogress nounwind uwtable
define linkonce_odr dso_local noundef ptr @_ZNK9InputGeom19getNavMeshBoundsMinEv(ptr noundef nonnull align 8 dereferenceable(50312) %0) #0 comdat align 2 {
  %2 = alloca ptr, align 8
  store ptr %0, ptr %2, align 8
  %3 = load ptr, ptr %2, align 8
  %4 = getelementptr inbounds %class.InputGeom, ptr %3, i32 0, i32 5
  %5 = load i8, ptr %4, align 4
  %6 = trunc i8 %5 to i1
  br i1 %6, label %7, label %10

7:                                                ; preds = %1
  %8 = getelementptr inbounds %class.InputGeom, ptr %3, i32 0, i32 4
  %9 = getelementptr inbounds %struct.BuildSettings, ptr %8, i32 0, i32 14
  br label %12

10:                                               ; preds = %1
  %11 = getelementptr inbounds %class.InputGeom, ptr %3, i32 0, i32 2
  br label %12

12:                                               ; preds = %10, %7
  %13 = phi ptr [ %9, %7 ], [ %11, %10 ]
  %14 = getelementptr inbounds [3 x float], ptr %13, i64 0, i64 0
  ret ptr %14
}

; Function Attrs: mustprogress uwtable
define dso_local void @_ZN15Sample_TileMesh14handleSettingsEv(ptr noundef nonnull align 8 dereferenceable(404) %0) unnamed_addr #3 align 2 {
  %2 = alloca ptr, align 8
  %3 = alloca [64 x i8], align 16
  %4 = alloca i32, align 4
  %5 = alloca i32, align 4
  %6 = alloca ptr, align 8
  %7 = alloca ptr, align 8
  %8 = alloca i32, align 4
  %9 = alloca i32, align 4
  %10 = alloca i32, align 4
  %11 = alloca i32, align 4
  %12 = alloca i32, align 4
  %13 = alloca [64 x i8], align 16
  store ptr %0, ptr %2, align 8
  %14 = load ptr, ptr %2, align 8
  call void @_ZN6Sample20handleCommonSettingsEv(ptr noundef nonnull align 8 dereferenceable(200) %14)
  %15 = getelementptr inbounds %class.Sample_TileMesh, ptr %14, i32 0, i32 1
  %16 = load i8, ptr %15, align 8
  %17 = trunc i8 %16 to i1
  %18 = call noundef zeroext i1 @_Z10imguiCheckPKcbb(ptr noundef @.str, i1 noundef zeroext %17, i1 noundef zeroext true)
  br i1 %18, label %19, label %26

19:                                               ; preds = %1
  %20 = getelementptr inbounds %class.Sample_TileMesh, ptr %14, i32 0, i32 1
  %21 = load i8, ptr %20, align 8
  %22 = trunc i8 %21 to i1
  %23 = xor i1 %22, true
  %24 = getelementptr inbounds %class.Sample_TileMesh, ptr %14, i32 0, i32 1
  %25 = zext i1 %23 to i8
  store i8 %25, ptr %24, align 8
  br label %26

26:                                               ; preds = %19, %1
  %27 = getelementptr inbounds %class.Sample_TileMesh, ptr %14, i32 0, i32 2
  %28 = load i8, ptr %27, align 1
  %29 = trunc i8 %28 to i1
  %30 = call noundef zeroext i1 @_Z10imguiCheckPKcbb(ptr noundef @.str.1, i1 noundef zeroext %29, i1 noundef zeroext true)
  br i1 %30, label %31, label %38

31:                                               ; preds = %26
  %32 = getelementptr inbounds %class.Sample_TileMesh, ptr %14, i32 0, i32 2
  %33 = load i8, ptr %32, align 1
  %34 = trunc i8 %33 to i1
  %35 = xor i1 %34, true
  %36 = getelementptr inbounds %class.Sample_TileMesh, ptr %14, i32 0, i32 2
  %37 = zext i1 %35 to i8
  store i8 %37, ptr %36, align 1
  br label %38

38:                                               ; preds = %31, %26
  call void @_Z10imguiLabelPKc(ptr noundef @.str.2)
  %39 = getelementptr inbounds %class.Sample_TileMesh, ptr %14, i32 0, i32 15
  %40 = call noundef zeroext i1 @_Z11imguiSliderPKcPffffb(ptr noundef @.str.3, ptr noundef %39, float noundef 1.600000e+01, float noundef 1.024000e+03, float noundef 1.600000e+01, i1 noundef zeroext true)
  %41 = getelementptr inbounds %class.Sample, ptr %14, i32 0, i32 1
  %42 = load ptr, ptr %41, align 8
  %43 = icmp ne ptr %42, null
  br i1 %43, label %44, label %103

44:                                               ; preds = %38
  store i32 0, ptr %4, align 4
  store i32 0, ptr %5, align 4
  %45 = getelementptr inbounds %class.Sample, ptr %14, i32 0, i32 1
  %46 = load ptr, ptr %45, align 8
  %47 = call noundef ptr @_ZNK9InputGeom19getNavMeshBoundsMinEv(ptr noundef nonnull align 8 dereferenceable(50312) %46)
  store ptr %47, ptr %6, align 8
  %48 = getelementptr inbounds %class.Sample, ptr %14, i32 0, i32 1
  %49 = load ptr, ptr %48, align 8
  %50 = call noundef ptr @_ZNK9InputGeom19getNavMeshBoundsMaxEv(ptr noundef nonnull align 8 dereferenceable(50312) %49)
  store ptr %50, ptr %7, align 8
  %51 = load ptr, ptr %6, align 8
  %52 = load ptr, ptr %7, align 8
  %53 = getelementptr inbounds %class.Sample, ptr %14, i32 0, i32 6
  %54 = load float, ptr %53, align 4
  call void @_Z14rcCalcGridSizePKfS0_fPiS1_(ptr noundef %51, ptr noundef %52, float noundef %54, ptr noundef %4, ptr noundef %5)
  %55 = getelementptr inbounds %class.Sample_TileMesh, ptr %14, i32 0, i32 15
  %56 = load float, ptr %55, align 8
  %57 = fptosi float %56 to i32
  store i32 %57, ptr %8, align 4
  %58 = load i32, ptr %4, align 4
  %59 = load i32, ptr %8, align 4
  %60 = add nsw i32 %58, %59
  %61 = sub nsw i32 %60, 1
  %62 = load i32, ptr %8, align 4
  %63 = sdiv i32 %61, %62
  store i32 %63, ptr %9, align 4
  %64 = load i32, ptr %5, align 4
  %65 = load i32, ptr %8, align 4
  %66 = add nsw i32 %64, %65
  %67 = sub nsw i32 %66, 1
  %68 = load i32, ptr %8, align 4
  %69 = sdiv i32 %67, %68
  store i32 %69, ptr %10, align 4
  %70 = getelementptr inbounds [64 x i8], ptr %3, i64 0, i64 0
  %71 = load i32, ptr %9, align 4
  %72 = load i32, ptr %10, align 4
  %73 = call i32 (ptr, i64, ptr, ...) @snprintf(ptr noundef %70, i64 noundef 64, ptr noundef @.str.4, i32 noundef %71, i32 noundef %72) #9
  %74 = getelementptr inbounds [64 x i8], ptr %3, i64 0, i64 0
  call void @_Z10imguiValuePKc(ptr noundef %74)
  %75 = load i32, ptr %9, align 4
  %76 = load i32, ptr %10, align 4
  %77 = mul nsw i32 %75, %76
  %78 = call noundef i32 @_Z8nextPow2j(i32 noundef %77)
  %79 = call noundef i32 @_Z5ilog2j(i32 noundef %78)
  %80 = call noundef i32 @_Z5rcMinIiET_S0_S0_(i32 noundef %79, i32 noundef 14)
  store i32 %80, ptr %11, align 4
  %81 = load i32, ptr %11, align 4
  %82 = icmp sgt i32 %81, 14
  br i1 %82, label %83, label %84

83:                                               ; preds = %44
  store i32 14, ptr %11, align 4
  br label %84

84:                                               ; preds = %83, %44
  %85 = load i32, ptr %11, align 4
  %86 = sub nsw i32 22, %85
  store i32 %86, ptr %12, align 4
  %87 = load i32, ptr %11, align 4
  %88 = shl i32 1, %87
  %89 = getelementptr inbounds %class.Sample_TileMesh, ptr %14, i32 0, i32 13
  store i32 %88, ptr %89, align 8
  %90 = load i32, ptr %12, align 4
  %91 = shl i32 1, %90
  %92 = getelementptr inbounds %class.Sample_TileMesh, ptr %14, i32 0, i32 14
  store i32 %91, ptr %92, align 4
  %93 = getelementptr inbounds [64 x i8], ptr %3, i64 0, i64 0
  %94 = getelementptr inbounds %class.Sample_TileMesh, ptr %14, i32 0, i32 13
  %95 = load i32, ptr %94, align 8
  %96 = call i32 (ptr, i64, ptr, ...) @snprintf(ptr noundef %93, i64 noundef 64, ptr noundef @.str.5, i32 noundef %95) #9
  %97 = getelementptr inbounds [64 x i8], ptr %3, i64 0, i64 0
  call void @_Z10imguiValuePKc(ptr noundef %97)
  %98 = getelementptr inbounds [64 x i8], ptr %3, i64 0, i64 0
  %99 = getelementptr inbounds %class.Sample_TileMesh, ptr %14, i32 0, i32 14
  %100 = load i32, ptr %99, align 4
  %101 = call i32 (ptr, i64, ptr, ...) @snprintf(ptr noundef %98, i64 noundef 64, ptr noundef @.str.6, i32 noundef %100) #9
  %102 = getelementptr inbounds [64 x i8], ptr %3, i64 0, i64 0
  call void @_Z10imguiValuePKc(ptr noundef %102)
  br label %106

103:                                              ; preds = %38
  %104 = getelementptr inbounds %class.Sample_TileMesh, ptr %14, i32 0, i32 13
  store i32 0, ptr %104, align 8
  %105 = getelementptr inbounds %class.Sample_TileMesh, ptr %14, i32 0, i32 14
  store i32 0, ptr %105, align 4
  br label %106

106:                                              ; preds = %103, %84
  call void @_Z14imguiSeparatorv()
  call void @_Z11imguiIndentv()
  call void @_Z11imguiIndentv()
  %107 = call noundef zeroext i1 @_Z11imguiButtonPKcb(ptr noundef @.str.7, i1 noundef zeroext true)
  br i1 %107, label %108, label %111

108:                                              ; preds = %106
  %109 = getelementptr inbounds %class.Sample, ptr %14, i32 0, i32 2
  %110 = load ptr, ptr %109, align 8
  call void @_ZN6Sample7saveAllEPKcPK9dtNavMesh(ptr noundef nonnull align 8 dereferenceable(200) %14, ptr noundef @.str.8, ptr noundef %110)
  br label %111

111:                                              ; preds = %108, %106
  %112 = call noundef zeroext i1 @_Z11imguiButtonPKcb(ptr noundef @.str.9, i1 noundef zeroext true)
  br i1 %112, label %113, label %123

113:                                              ; preds = %111
  %114 = getelementptr inbounds %class.Sample, ptr %14, i32 0, i32 2
  %115 = load ptr, ptr %114, align 8
  call void @_Z13dtFreeNavMeshP9dtNavMesh(ptr noundef %115)
  %116 = call noundef ptr @_ZN6Sample7loadAllEPKc(ptr noundef nonnull align 8 dereferenceable(200) %14, ptr noundef @.str.8)
  %117 = getelementptr inbounds %class.Sample, ptr %14, i32 0, i32 2
  store ptr %116, ptr %117, align 8
  %118 = getelementptr inbounds %class.Sample, ptr %14, i32 0, i32 3
  %119 = load ptr, ptr %118, align 8
  %120 = getelementptr inbounds %class.Sample, ptr %14, i32 0, i32 2
  %121 = load ptr, ptr %120, align 8
  %122 = call noundef i32 @_ZN14dtNavMeshQuery4initEPK9dtNavMeshi(ptr noundef nonnull align 8 dereferenceable(104) %119, ptr noundef %121, i32 noundef 2048)
  br label %123

123:                                              ; preds = %113, %111
  call void @_Z13imguiUnindentv()
  call void @_Z13imguiUnindentv()
  %124 = getelementptr inbounds [64 x i8], ptr %13, i64 0, i64 0
  %125 = getelementptr inbounds %class.Sample_TileMesh, ptr %14, i32 0, i32 4
  %126 = load float, ptr %125, align 4
  %127 = fpext float %126 to double
  %128 = call i32 (ptr, i64, ptr, ...) @snprintf(ptr noundef %124, i64 noundef 64, ptr noundef @.str.10, double noundef %127) #9
  %129 = getelementptr inbounds [64 x i8], ptr %13, i64 0, i64 0
  call void @_Z10imguiLabelPKc(ptr noundef %129)
  call void @_Z14imguiSeparatorv()
  call void @_Z14imguiSeparatorv()
  ret void
}