; Function Attrs: mustprogress uwtable
define dso_local void @_ZN15Sample_TileMesh14handleSettingsEv(ptr noundef nonnull align 8 dereferenceable(404) %0) unnamed_addr #3 align 2 {
  %2 = alloca [64 x i8], align 16
  %3 = alloca i32, align 4
  %4 = alloca i32, align 4
  %5 = alloca [64 x i8], align 16
  tail call void @_ZN6Sample20handleCommonSettingsEv(ptr noundef nonnull align 8 dereferenceable(200) %0)
  %6 = getelementptr inbounds i8, ptr %0, i64 200
  %7 = load i8, ptr %6, align 8
  %8 = and i8 %7, 1
  %9 = icmp ne i8 %8, 0
  %10 = tail call noundef zeroext i1 @_Z10imguiCheckPKcbb(ptr noundef nonnull @.str, i1 noundef zeroext %9, i1 noundef zeroext true)
  br i1 %10, label %11, label %15

11:                                               ; preds = %1
  %12 = load i8, ptr %6, align 8
  %13 = and i8 %12, 1
  %14 = xor i8 %13, 1
  store i8 %14, ptr %6, align 8
  br label %15

15:                                               ; preds = %11, %1
  %16 = getelementptr inbounds i8, ptr %0, i64 201
  %17 = load i8, ptr %16, align 1
  %18 = and i8 %17, 1
  %19 = icmp ne i8 %18, 0
  %20 = tail call noundef zeroext i1 @_Z10imguiCheckPKcbb(ptr noundef nonnull @.str.1, i1 noundef zeroext %19, i1 noundef zeroext true)
  br i1 %20, label %21, label %25

21:                                               ; preds = %15
  %22 = load i8, ptr %16, align 1
  %23 = and i8 %22, 1
  %24 = xor i8 %23, 1
  store i8 %24, ptr %16, align 1
  br label %25

25:                                               ; preds = %21, %15
  tail call void @_Z10imguiLabelPKc(ptr noundef nonnull @.str.2)
  %26 = getelementptr inbounds i8, ptr %0, i64 360
  %27 = tail call noundef zeroext i1 @_Z11imguiSliderPKcPffffb(ptr noundef nonnull @.str.3, ptr noundef nonnull %26, float noundef 1.600000e+01, float noundef 1.024000e+03, float noundef 1.600000e+01, i1 noundef zeroext true)
  %28 = getelementptr inbounds i8, ptr %0, i64 8
  %29 = load ptr, ptr %28, align 8
  %.not = icmp eq ptr %29, null
  br i1 %.not, label %87, label %30

30:                                               ; preds = %25
  store i32 0, ptr %3, align 4
  store i32 0, ptr %4, align 4
  %31 = getelementptr inbounds i8, ptr %29, i64 124
  %32 = load i8, ptr %31, align 4
  %33 = and i8 %32, 1
  %.not.i = icmp eq i8 %33, 0
  %.v.i = select i1 %.not.i, i64 16, i64 96
  %34 = getelementptr inbounds i8, ptr %29, i64 %.v.i
  %.v.i15 = select i1 %.not.i, i64 28, i64 108
  %35 = getelementptr inbounds i8, ptr %29, i64 %.v.i15
  %36 = getelementptr inbounds i8, ptr %0, i64 44
  %37 = load float, ptr %36, align 4
  call void @_Z14rcCalcGridSizePKfS0_fPiS1_(ptr noundef nonnull %34, ptr noundef nonnull %35, float noundef %37, ptr noundef nonnull %3, ptr noundef nonnull %4)
  %38 = load float, ptr %26, align 8
  %39 = fptosi float %38 to i32
  %40 = load i32, ptr %3, align 4
  %41 = add i32 %39, -1
  %42 = add i32 %41, %40
  %43 = sdiv i32 %42, %39
  %44 = load i32, ptr %4, align 4
  %45 = add i32 %41, %44
  %46 = sdiv i32 %45, %39
  %47 = call i32 (ptr, i64, ptr, ...) @snprintf(ptr noundef nonnull dereferenceable(1) %2, i64 noundef 64, ptr noundef nonnull @.str.4, i32 noundef %43, i32 noundef %46) #12
  call void @_Z10imguiValuePKc(ptr noundef nonnull %2)
  %48 = mul nsw i32 %46, %43
  %49 = add i32 %48, -1
  %50 = lshr i32 %49, 1
  %51 = or i32 %50, %49
  %52 = lshr i32 %51, 2
  %53 = or i32 %52, %51
  %54 = lshr i32 %53, 4
  %55 = or i32 %54, %53
  %56 = lshr i32 %55, 8
  %57 = or i32 %56, %55
  %58 = lshr i32 %57, 16
  %59 = or i32 %58, %57
  %60 = add i32 %59, 1
  %61 = icmp ugt i32 %60, 65535
  %62 = select i1 %61, i32 16, i32 0
  %63 = lshr i32 %60, %62
  %64 = icmp ugt i32 %63, 255
  %65 = select i1 %64, i32 8, i32 0
  %66 = lshr i32 %63, %65
  %67 = icmp ugt i32 %66, 15
  %68 = select i1 %67, i32 4, i32 0
  %69 = lshr i32 %66, %68
  %70 = icmp ugt i32 %69, 3
  %71 = select i1 %70, i32 2, i32 0
  %72 = lshr i32 %69, %71
  %73 = lshr i32 %72, 1
  %74 = or i32 %62, %73
  %75 = or i32 %74, %65
  %76 = or i32 %75, %68
  %77 = or i32 %76, %71
  %78 = call i32 @llvm.umin.i32(i32 %77, i32 14)
  %79 = sub nuw nsw i32 22, %78
  %80 = shl nuw nsw i32 1, %78
  %81 = getelementptr inbounds i8, ptr %0, i64 352
  store i32 %80, ptr %81, align 8
  %82 = shl nuw nsw i32 1, %79
  %83 = getelementptr inbounds i8, ptr %0, i64 356
  store i32 %82, ptr %83, align 4
  %84 = call i32 (ptr, i64, ptr, ...) @snprintf(ptr noundef nonnull dereferenceable(1) %2, i64 noundef 64, ptr noundef nonnull @.str.5, i32 noundef %80) #12
  call void @_Z10imguiValuePKc(ptr noundef nonnull %2)
  %85 = load i32, ptr %83, align 4
  %86 = call i32 (ptr, i64, ptr, ...) @snprintf(ptr noundef nonnull dereferenceable(1) %2, i64 noundef 64, ptr noundef nonnull @.str.6, i32 noundef %85) #12
  call void @_Z10imguiValuePKc(ptr noundef nonnull %2)
  br label %90

87:                                               ; preds = %25
  %88 = getelementptr inbounds i8, ptr %0, i64 352
  store i32 0, ptr %88, align 8
  %89 = getelementptr inbounds i8, ptr %0, i64 356
  store i32 0, ptr %89, align 4
  br label %90

90:                                               ; preds = %87, %30
  call void @_Z14imguiSeparatorv()
  call void @_Z11imguiIndentv()
  call void @_Z11imguiIndentv()
  %91 = call noundef zeroext i1 @_Z11imguiButtonPKcb(ptr noundef nonnull @.str.7, i1 noundef zeroext true)
  br i1 %91, label %92, label %95

92:                                               ; preds = %90
  %93 = getelementptr inbounds i8, ptr %0, i64 16
  %94 = load ptr, ptr %93, align 8
  call void @_ZN6Sample7saveAllEPKcPK9dtNavMesh(ptr noundef nonnull align 8 dereferenceable(200) %0, ptr noundef nonnull @.str.8, ptr noundef %94)
  br label %95

95:                                               ; preds = %92, %90
  %96 = call noundef zeroext i1 @_Z11imguiButtonPKcb(ptr noundef nonnull @.str.9, i1 noundef zeroext true)
  br i1 %96, label %97, label %104

97:                                               ; preds = %95
  %98 = getelementptr inbounds i8, ptr %0, i64 16
  %99 = load ptr, ptr %98, align 8
  call void @_Z13dtFreeNavMeshP9dtNavMesh(ptr noundef %99)
  %100 = call noundef ptr @_ZN6Sample7loadAllEPKc(ptr noundef nonnull align 8 dereferenceable(200) %0, ptr noundef nonnull @.str.8)
  store ptr %100, ptr %98, align 8
  %101 = getelementptr inbounds i8, ptr %0, i64 24
  %102 = load ptr, ptr %101, align 8
  %103 = call noundef i32 @_ZN14dtNavMeshQuery4initEPK9dtNavMeshi(ptr noundef nonnull align 8 dereferenceable(104) %102, ptr noundef %100, i32 noundef 2048)
  br label %104

104:                                              ; preds = %97, %95
  call void @_Z13imguiUnindentv()
  call void @_Z13imguiUnindentv()
  %105 = getelementptr inbounds i8, ptr %0, i64 204
  %106 = load float, ptr %105, align 4
  %107 = fpext float %106 to double
  %108 = call i32 (ptr, i64, ptr, ...) @snprintf(ptr noundef nonnull dereferenceable(1) %5, i64 noundef 64, ptr noundef nonnull @.str.10, double noundef %107) #12
  call void @_Z10imguiLabelPKc(ptr noundef nonnull %5)
  call void @_Z14imguiSeparatorv()
  call void @_Z14imguiSeparatorv()
  ret void
}